target datalayout = "e-m:e-p270:32:32-p271:32:32-p272:64:64-i64:64-i128:128-f80:128-n8:16:32:64-S128"
target triple = "x86_64-pc-linux-gnu"

%"class.toku::keyrange" = type <{ %struct.__toku_dbt, %struct.__toku_dbt, ptr, ptr, i8, [7 x i8] }>
%struct.__toku_dbt = type { ptr, i64, i64, i32 }

; Function Attrs: mustprogress uwtable
define void @_ZN4toku8keyrange10init_emptyEv(ptr noundef nonnull align 8 dereferenceable(81) %0) #0 align 2 {
  %2 = alloca ptr, align 8
  store ptr %0, ptr %2, align 8, !tbaa !4
  %3 = load ptr, ptr %2, align 8
  %4 = getelementptr inbounds nuw %"class.toku::keyrange", ptr %3, i32 0, i32 2
  store ptr null, ptr %4, align 8, !tbaa !11
  %5 = getelementptr inbounds nuw %"class.toku::keyrange", ptr %3, i32 0, i32 3
  store ptr null, ptr %5, align 8, !tbaa !17
  %6 = getelementptr inbounds nuw %"class.toku::keyrange", ptr %3, i32 0, i32 0
  %7 = call noundef ptr @_Z13toku_init_dbtP10__toku_dbt(ptr noundef %6)
  %8 = getelementptr inbounds nuw %"class.toku::keyrange", ptr %3, i32 0, i32 1
  %9 = call noundef ptr @_Z13toku_init_dbtP10__toku_dbt(ptr noundef %8)
  %10 = getelementptr inbounds nuw %"class.toku::keyrange", ptr %3, i32 0, i32 4
  store i8 0, ptr %10, align 8, !tbaa !18
  ret void
}