; Function Attrs: mustprogress uwtable
define void @_ZN4toku8keyrange10init_emptyEv(ptr noundef nonnull align 8 dereferenceable(81) initializes((64, 80)) %0) local_unnamed_addr #0 align 2 {
  %2 = getelementptr inbounds nuw i8, ptr %0, i64 64
  tail call void @llvm.memset.p0.i64(ptr noundef nonnull align 8 dereferenceable(16) %2, i8 0, i64 16, i1 false)
  %3 = tail call noundef ptr @_Z13toku_init_dbtP10__toku_dbt(ptr noundef nonnull %0)
  %4 = getelementptr inbounds nuw i8, ptr %0, i64 32
  %5 = tail call noundef ptr @_Z13toku_init_dbtP10__toku_dbt(ptr noundef nonnull %4)
  %6 = getelementptr inbounds nuw i8, ptr %0, i64 80
  store i8 0, ptr %6, align 8, !tbaa !4
  ret void
}